target datalayout = "e-m:e-p270:32:32-p271:32:32-p272:64:64-i64:64-i128:128-f80:128-n8:16:32:64-S128"
target triple = "x86_64-pc-linux-gnu"

%struct.AVProbeData = type { ptr, ptr, i32, ptr }

; Function Attrs: nounwind uwtable
define internal i32 @usm_probe(ptr noundef %0) #0 {
  %2 = alloca i32, align 4
  %3 = alloca ptr, align 8
  store ptr %0, ptr %3, align 8, !tbaa !4
  %4 = load ptr, ptr %3, align 8, !tbaa !4
  %5 = getelementptr inbounds nuw %struct.AVProbeData, ptr %4, i32 0, i32 1
  %6 = load ptr, ptr %5, align 8, !tbaa !9
  %7 = load i32, ptr %6, align 1, !tbaa !13
  %8 = icmp ne i32 %7, 1145655875
  br i1 %8, label %9, label %10

9:                                                ; preds = %1
  store i32 0, ptr %2, align 4
  br label %19

10:                                               ; preds = %1
  %11 = load ptr, ptr %3, align 8, !tbaa !4
  %12 = getelementptr inbounds nuw %struct.AVProbeData, ptr %11, i32 0, i32 1
  %13 = load ptr, ptr %12, align 8, !tbaa !9
  %14 = getelementptr inbounds i8, ptr %13, i64 4
  %15 = load i32, ptr %14, align 1, !tbaa !13
  %16 = icmp eq i32 %15, 0
  br i1 %16, label %17, label %18

17:                                               ; preds = %10
  store i32 0, ptr %2, align 4
  br label %19

18:                                               ; preds = %10
  store i32 33, ptr %2, align 4
  br label %19

19:                                               ; preds = %18, %17, %9
  %20 = load i32, ptr %2, align 4
  ret i32 %20
}